; ModuleID = '25/757.c'
source_filename = "25/757.c"
target datalayout = "e-m:e-p270:32:32-p271:32:32-p272:64:64-i64:64-f80:128-n8:16:32:64-S128"
target triple = "x86_64-pc-linux-gnu"

@.str = private unnamed_addr constant [3 x i8] c"%d\00", align 1
@.str.1 = private unnamed_addr constant [2 x i8] c"1\00", align 1

; Function Attrs: noinline nounwind uwtable
define dso_local i32 @main() #0 {
  %1 = alloca i32, align 4
  %2 = alloca [200 x i32], align 16
  %3 = alloca i32, align 4
  %4 = alloca i32, align 4
  %5 = alloca i32, align 4
  %6 = alloca i32, align 4
  store i32 0, i32* %1, align 4
  %7 = bitcast [200 x i32]* %2 to i8*
  call void @llvm.memset.p0i8.i64(i8* align 16 %7, i8 0, i64 800, i1 false)
  store i32 0, i32* %3, align 4
  %8 = call i32 (i8*, ...) @__isoc99_scanf(i8* getelementptr inbounds ([3 x i8], [3 x i8]* @.str, i64 0, i64 0), i32* %6)
  %9 = load i32, i32* %6, align 4
  %10 = icmp eq i32 %9, 0
  br i1 %10, label %11, label %13

11:                                               ; preds = %0
  %12 = call i32 (i8*, ...) @printf(i8* getelementptr inbounds ([2 x i8], [2 x i8]* @.str.1, i64 0, i64 0))
  store i32 0, i32* %1, align 4
  br label %86

13:                                               ; preds = %0
  %14 = getelementptr inbounds [200 x i32], [200 x i32]* %2, i64 0, i64 0
  store i32 2, i32* %14, align 16
  store i32 1, i32* %4, align 4
  br label %15

15:                                               ; preds = %53, %13
  %16 = load i32, i32* %4, align 4
  %17 = load i32, i32* %6, align 4
  %18 = icmp slt i32 %16, %17
  br i1 %18, label %19, label %56

19:                                               ; preds = %15
  store i32 0, i32* %5, align 4
  br label %20

20:                                               ; preds = %49, %19
  %21 = load i32, i32* %5, align 4
  %22 = icmp slt i32 %21, 199
  br i1 %22, label %23, label %52

23:                                               ; preds = %20
  %24 = load i32, i32* %5, align 4
  %25 = sext i32 %24 to i64
  %26 = getelementptr inbounds [200 x i32], [200 x i32]* %2, i64 0, i64 %25
  %27 = load i32, i32* %26, align 4
  %28 = mul nsw i32 %27, 2
  %29 = load i32, i32* %3, align 4
  %30 = add nsw i32 %28, %29
  %31 = load i32, i32* %5, align 4
  %32 = sext i32 %31 to i64
  %33 = getelementptr inbounds [200 x i32], [200 x i32]* %2, i64 0, i64 %32
  store i32 %30, i32* %33, align 4
  store i32 0, i32* %3, align 4
  br label %34

34:                                               ; preds = %40, %23
  %35 = load i32, i32* %5, align 4
  %36 = sext i32 %35 to i64
  %37 = getelementptr inbounds [200 x i32], [200 x i32]* %2, i64 0, i64 %36
  %38 = load i32, i32* %37, align 4
  %39 = icmp sge i32 %38, 10
  br i1 %39, label %40, label %48

40:                                               ; preds = %34
  %41 = load i32, i32* %5, align 4
  %42 = sext i32 %41 to i64
  %43 = getelementptr inbounds [200 x i32], [200 x i32]* %2, i64 0, i64 %42
  %44 = load i32, i32* %43, align 4
  %45 = sub nsw i32 %44, 10
  store i32 %45, i32* %43, align 4
  %46 = load i32, i32* %3, align 4
  %47 = add nsw i32 %46, 1
  store i32 %47, i32* %3, align 4
  br label %34

48:                                               ; preds = %34
  br label %49

49:                                               ; preds = %48
  %50 = load i32, i32* %5, align 4
  %51 = add nsw i32 %50, 1
  store i32 %51, i32* %5, align 4
  br label %20

52:                                               ; preds = %20
  br label %53

53:                                               ; preds = %52
  %54 = load i32, i32* %4, align 4
  %55 = add nsw i32 %54, 1
  store i32 %55, i32* %4, align 4
  br label %15

56:                                               ; preds = %15
  store i32 199, i32* %4, align 4
  br label %57

57:                                               ; preds = %82, %56
  %58 = load i32, i32* %4, align 4
  %59 = icmp sge i32 %58, 0
  br i1 %59, label %60, label %85

60:                                               ; preds = %57
  %61 = load i32, i32* %4, align 4
  %62 = sext i32 %61 to i64
  %63 = getelementptr inbounds [200 x i32], [200 x i32]* %2, i64 0, i64 %62
  %64 = load i32, i32* %63, align 4
  %65 = icmp ne i32 %64, 0
  br i1 %65, label %66, label %81

66:                                               ; preds = %60
  %67 = load i32, i32* %4, align 4
  store i32 %67, i32* %4, align 4
  br label %68

68:                                               ; preds = %77, %66
  %69 = load i32, i32* %4, align 4
  %70 = icmp sge i32 %69, 0
  br i1 %70, label %71, label %80

71:                                               ; preds = %68
  %72 = load i32, i32* %4, align 4
  %73 = sext i32 %72 to i64
  %74 = getelementptr inbounds [200 x i32], [200 x i32]* %2, i64 0, i64 %73
  %75 = load i32, i32* %74, align 4
  %76 = call i32 (i8*, ...) @printf(i8* getelementptr inbounds ([3 x i8], [3 x i8]* @.str, i64 0, i64 0), i32 %75)
  br label %77

77:                                               ; preds = %71
  %78 = load i32, i32* %4, align 4
  %79 = add nsw i32 %78, -1
  store i32 %79, i32* %4, align 4
  br label %68

80:                                               ; preds = %68
  br label %85

81:                                               ; preds = %60
  br label %82

82:                                               ; preds = %81
  %83 = load i32, i32* %4, align 4
  %84 = add nsw i32 %83, -1
  store i32 %84, i32* %4, align 4
  br label %57

85:                                               ; preds = %80, %57
  store i32 0, i32* %1, align 4
  br label %86

86:                                               ; preds = %85, %11
  %87 = load i32, i32* %1, align 4
  ret i32 %87
}

; Function Attrs: argmemonly nounwind willreturn
declare void @llvm.memset.p0i8.i64(i8* nocapture writeonly, i8, i64, i1 immarg) #1

declare dso_local i32 @__isoc99_scanf(i8*, ...) #2

declare dso_local i32 @printf(i8*, ...) #2


!llvm.module.flags = !{!0}
!llvm.ident = !{!1}

!0 = !{i32 1, !"wchar_size", i32 4}
!1 = !{!"clang version 10.0.0-4ubuntu1 "}
